target datalayout = "e-m:e-p270:32:32-p271:32:32-p272:64:64-i64:64-i128:128-f80:128-n8:16:32:64-S128"
target triple = "x86_64-pc-linux-gnu"

%struct._DlsMat = type { i32, i64, i64, i64, i64, i64, i64, ptr, i64, ptr }

@.str = private unnamed_addr constant [2 x i8] c"\0A\00", align 1
@.str.1 = private unnamed_addr constant [7 x i8] c"%12g  \00", align 1
@.str.2 = private unnamed_addr constant [7 x i8] c"%12s  \00", align 1
@.str.3 = private unnamed_addr constant [1 x i8] zeroinitializer, align 1

; Function Attrs: nounwind uwtable
define void @PrintMat(ptr noundef %0) #0 {
  %2 = alloca ptr, align 8
  %3 = alloca i64, align 8
  %4 = alloca i64, align 8
  %5 = alloca i64, align 8
  %6 = alloca i64, align 8
  %7 = alloca ptr, align 8
  store ptr %0, ptr %2, align 8, !tbaa !7
  call void @llvm.lifetime.start.p0(i64 8, ptr %3) #5
  call void @llvm.lifetime.start.p0(i64 8, ptr %4) #5
  call void @llvm.lifetime.start.p0(i64 8, ptr %5) #5
  call void @llvm.lifetime.start.p0(i64 8, ptr %6) #5
  call void @llvm.lifetime.start.p0(i64 8, ptr %7) #5
  %8 = load ptr, ptr %2, align 8, !tbaa !7
  %9 = getelementptr inbounds nuw %struct._DlsMat, ptr %8, i32 0, i32 0
  %10 = load i32, ptr %9, align 8, !tbaa !23
  switch i32 %10, label %137 [
    i32 1, label %11
    i32 2, label %47
  ]

11:                                               ; preds = %1
  %12 = call i32 (ptr, ...) @printf(ptr noundef @.str)
  store i64 0, ptr %3, align 8, !tbaa !3
  br label %13

13:                                               ; preds = %42, %11
  %14 = load i64, ptr %3, align 8, !tbaa !3
  %15 = load ptr, ptr %2, align 8, !tbaa !7
  %16 = getelementptr inbounds nuw %struct._DlsMat, ptr %15, i32 0, i32 1
  %17 = load i64, ptr %16, align 8, !tbaa !19
  %18 = icmp slt i64 %14, %17
  br i1 %18, label %19, label %45

19:                                               ; preds = %13
  store i64 0, ptr %4, align 8, !tbaa !3
  br label %20

20:                                               ; preds = %37, %19
  %21 = load i64, ptr %4, align 8, !tbaa !3
  %22 = load ptr, ptr %2, align 8, !tbaa !7
  %23 = getelementptr inbounds nuw %struct._DlsMat, ptr %22, i32 0, i32 2
  %24 = load i64, ptr %23, align 8, !tbaa !20
  %25 = icmp slt i64 %21, %24
  br i1 %25, label %26, label %40

26:                                               ; preds = %20
  %27 = load ptr, ptr %2, align 8, !tbaa !7
  %28 = getelementptr inbounds nuw %struct._DlsMat, ptr %27, i32 0, i32 9
  %29 = load ptr, ptr %28, align 8, !tbaa !15
  %30 = load i64, ptr %4, align 8, !tbaa !3
  %31 = getelementptr inbounds ptr, ptr %29, i64 %30
  %32 = load ptr, ptr %31, align 8, !tbaa !16
  %33 = load i64, ptr %3, align 8, !tbaa !3
  %34 = getelementptr inbounds double, ptr %32, i64 %33
  %35 = load double, ptr %34, align 8, !tbaa !37
  %36 = call i32 (ptr, ...) @printf(ptr noundef @.str.1, double noundef %35)
  br label %37

37:                                               ; preds = %26
  %38 = load i64, ptr %4, align 8, !tbaa !3
  %39 = add nsw i64 %38, 1
  store i64 %39, ptr %4, align 8, !tbaa !3
  br label %20, !llvm.loop !45

40:                                               ; preds = %20
  %41 = call i32 (ptr, ...) @printf(ptr noundef @.str)
  br label %42

42:                                               ; preds = %40
  %43 = load i64, ptr %3, align 8, !tbaa !3
  %44 = add nsw i64 %43, 1
  store i64 %44, ptr %3, align 8, !tbaa !3
  br label %13, !llvm.loop !46

45:                                               ; preds = %13
  %46 = call i32 (ptr, ...) @printf(ptr noundef @.str)
  br label %137

47:                                               ; preds = %1
  %48 = load ptr, ptr %2, align 8, !tbaa !7
  %49 = getelementptr inbounds nuw %struct._DlsMat, ptr %48, i32 0, i32 9
  %50 = load ptr, ptr %49, align 8, !tbaa !15
  store ptr %50, ptr %7, align 8, !tbaa !24
  %51 = call i32 (ptr, ...) @printf(ptr noundef @.str)
  store i64 0, ptr %3, align 8, !tbaa !3
  br label %52

52:                                               ; preds = %132, %47
  %53 = load i64, ptr %3, align 8, !tbaa !3
  %54 = load ptr, ptr %2, align 8, !tbaa !7
  %55 = getelementptr inbounds nuw %struct._DlsMat, ptr %54, i32 0, i32 2
  %56 = load i64, ptr %55, align 8, !tbaa !20
  %57 = icmp slt i64 %53, %56
  br i1 %57, label %58, label %135

58:                                               ; preds = %52
  %59 = load i64, ptr %3, align 8, !tbaa !3
  %60 = load ptr, ptr %2, align 8, !tbaa !7
  %61 = getelementptr inbounds nuw %struct._DlsMat, ptr %60, i32 0, i32 5
  %62 = load i64, ptr %61, align 8, !tbaa !28
  %63 = sub nsw i64 %59, %62
  %64 = icmp sgt i64 0, %63
  br i1 %64, label %65, label %66

65:                                               ; preds = %58
  br label %72

66:                                               ; preds = %58
  %67 = load i64, ptr %3, align 8, !tbaa !3
  %68 = load ptr, ptr %2, align 8, !tbaa !7
  %69 = getelementptr inbounds nuw %struct._DlsMat, ptr %68, i32 0, i32 5
  %70 = load i64, ptr %69, align 8, !tbaa !28
  %71 = sub nsw i64 %67, %70
  br label %72

72:                                               ; preds = %66, %65
  %73 = phi i64 [ 0, %65 ], [ %71, %66 ]
  store i64 %73, ptr %5, align 8, !tbaa !3
  %74 = load ptr, ptr %2, align 8, !tbaa !7
  %75 = getelementptr inbounds nuw %struct._DlsMat, ptr %74, i32 0, i32 2
  %76 = load i64, ptr %75, align 8, !tbaa !20
  %77 = sub nsw i64 %76, 1
  %78 = load i64, ptr %3, align 8, !tbaa !3
  %79 = load ptr, ptr %2, align 8, !tbaa !7
  %80 = getelementptr inbounds nuw %struct._DlsMat, ptr %79, i32 0, i32 4
  %81 = load i64, ptr %80, align 8, !tbaa !27
  %82 = add nsw i64 %78, %81
  %83 = icmp slt i64 %77, %82
  br i1 %83, label %84, label %89

84:                                               ; preds = %72
  %85 = load ptr, ptr %2, align 8, !tbaa !7
  %86 = getelementptr inbounds nuw %struct._DlsMat, ptr %85, i32 0, i32 2
  %87 = load i64, ptr %86, align 8, !tbaa !20
  %88 = sub nsw i64 %87, 1
  br label %95

89:                                               ; preds = %72
  %90 = load i64, ptr %3, align 8, !tbaa !3
  %91 = load ptr, ptr %2, align 8, !tbaa !7
  %92 = getelementptr inbounds nuw %struct._DlsMat, ptr %91, i32 0, i32 4
  %93 = load i64, ptr %92, align 8, !tbaa !27
  %94 = add nsw i64 %90, %93
  br label %95

95:                                               ; preds = %89, %84
  %96 = phi i64 [ %88, %84 ], [ %94, %89 ]
  store i64 %96, ptr %6, align 8, !tbaa !3
  store i64 0, ptr %4, align 8, !tbaa !3
  br label %97

97:                                               ; preds = %103, %95
  %98 = load i64, ptr %4, align 8, !tbaa !3
  %99 = load i64, ptr %5, align 8, !tbaa !3
  %100 = icmp slt i64 %98, %99
  br i1 %100, label %101, label %106

101:                                              ; preds = %97
  %102 = call i32 (ptr, ...) @printf(ptr noundef @.str.2, ptr noundef @.str.3)
  br label %103

103:                                              ; preds = %101
  %104 = load i64, ptr %4, align 8, !tbaa !3
  %105 = add nsw i64 %104, 1
  store i64 %105, ptr %4, align 8, !tbaa !3
  br label %97, !llvm.loop !47

106:                                              ; preds = %97
  %107 = load i64, ptr %5, align 8, !tbaa !3
  store i64 %107, ptr %4, align 8, !tbaa !3
  br label %108

108:                                              ; preds = %127, %106
  %109 = load i64, ptr %4, align 8, !tbaa !3
  %110 = load i64, ptr %6, align 8, !tbaa !3
  %111 = icmp sle i64 %109, %110
  br i1 %111, label %112, label %130

112:                                              ; preds = %108
  %113 = load ptr, ptr %7, align 8, !tbaa !24
  %114 = load i64, ptr %4, align 8, !tbaa !3
  %115 = getelementptr inbounds ptr, ptr %113, i64 %114
  %116 = load ptr, ptr %115, align 8, !tbaa !16
  %117 = load i64, ptr %3, align 8, !tbaa !3
  %118 = load i64, ptr %4, align 8, !tbaa !3
  %119 = sub nsw i64 %117, %118
  %120 = load ptr, ptr %2, align 8, !tbaa !7
  %121 = getelementptr inbounds nuw %struct._DlsMat, ptr %120, i32 0, i32 6
  %122 = load i64, ptr %121, align 8, !tbaa !29
  %123 = add nsw i64 %119, %122
  %124 = getelementptr inbounds double, ptr %116, i64 %123
  %125 = load double, ptr %124, align 8, !tbaa !37
  %126 = call i32 (ptr, ...) @printf(ptr noundef @.str.1, double noundef %125)
  br label %127

127:                                              ; preds = %112
  %128 = load i64, ptr %4, align 8, !tbaa !3
  %129 = add nsw i64 %128, 1
  store i64 %129, ptr %4, align 8, !tbaa !3
  br label %108, !llvm.loop !48

130:                                              ; preds = %108
  %131 = call i32 (ptr, ...) @printf(ptr noundef @.str)
  br label %132

132:                                              ; preds = %130
  %133 = load i64, ptr %3, align 8, !tbaa !3
  %134 = add nsw i64 %133, 1
  store i64 %134, ptr %3, align 8, !tbaa !3
  br label %52, !llvm.loop !49

135:                                              ; preds = %52
  %136 = call i32 (ptr, ...) @printf(ptr noundef @.str)
  br label %137

137:                                              ; preds = %1, %135, %45
  call void @llvm.lifetime.end.p0(i64 8, ptr %7) #5
  call void @llvm.lifetime.end.p0(i64 8, ptr %6) #5
  call void @llvm.lifetime.end.p0(i64 8, ptr %5) #5
  call void @llvm.lifetime.end.p0(i64 8, ptr %4) #5
  call void @llvm.lifetime.end.p0(i64 8, ptr %3) #5
  ret void
}