; Function Attrs: nofree nounwind uwtable
define void @PrintMat(ptr noundef readonly captures(none) %0) local_unnamed_addr #7 {
  %2 = load i32, ptr %0, align 8, !tbaa !20
  switch i32 %2, label %55 [
    i32 1, label %3
    i32 2, label %23
  ]

3:                                                ; preds = %1
  %putchar44 = tail call i32 @putchar(i32 10)
  %4 = getelementptr inbounds nuw i8, ptr %0, i64 8
  %5 = load i64, ptr %4, align 8, !tbaa !16
  %6 = icmp sgt i64 %5, 0
  br i1 %6, label %.preheader.lr.ph, label %.sink.split

.preheader.lr.ph:                                 ; preds = %3
  %7 = getelementptr inbounds nuw i8, ptr %0, i64 16
  %8 = getelementptr inbounds nuw i8, ptr %0, i64 72
  br label %.preheader

.preheader:                                       ; preds = %.preheader.lr.ph, %._crit_edge58
  %.059 = phi i64 [ 0, %.preheader.lr.ph ], [ %20, %._crit_edge58 ]
  %9 = load i64, ptr %7, align 8, !tbaa !17
  %10 = icmp sgt i64 %9, 0
  br i1 %10, label %.lr.ph57, label %._crit_edge58

.lr.ph57:                                         ; preds = %.preheader, %.lr.ph57
  %.03556 = phi i64 [ %17, %.lr.ph57 ], [ 0, %.preheader ]
  %11 = load ptr, ptr %8, align 8, !tbaa !12
  %12 = getelementptr inbounds nuw ptr, ptr %11, i64 %.03556
  %13 = load ptr, ptr %12, align 8, !tbaa !13
  %14 = getelementptr inbounds nuw double, ptr %13, i64 %.059
  %15 = load double, ptr %14, align 8, !tbaa !27
  %16 = tail call i32 (ptr, ...) @printf(ptr noundef nonnull dereferenceable(1) @.str.1, double noundef %15)
  %17 = add nuw nsw i64 %.03556, 1
  %18 = load i64, ptr %7, align 8, !tbaa !17
  %19 = icmp slt i64 %17, %18
  br i1 %19, label %.lr.ph57, label %._crit_edge58, !llvm.loop !33

._crit_edge58:                                    ; preds = %.lr.ph57, %.preheader
  %putchar46 = tail call i32 @putchar(i32 10)
  %20 = add nuw nsw i64 %.059, 1
  %21 = load i64, ptr %4, align 8, !tbaa !16
  %22 = icmp slt i64 %20, %21
  br i1 %22, label %.preheader, label %.sink.split, !llvm.loop !34

23:                                               ; preds = %1
  %24 = getelementptr inbounds nuw i8, ptr %0, i64 72
  %25 = load ptr, ptr %24, align 8, !tbaa !12
  %putchar = tail call i32 @putchar(i32 10)
  %26 = getelementptr inbounds nuw i8, ptr %0, i64 16
  %27 = load i64, ptr %26, align 8, !tbaa !17
  %28 = icmp sgt i64 %27, 0
  br i1 %28, label %.lr.ph54, label %.sink.split

.lr.ph54:                                         ; preds = %23
  %29 = getelementptr inbounds nuw i8, ptr %0, i64 40
  %30 = getelementptr inbounds nuw i8, ptr %0, i64 32
  %31 = getelementptr inbounds nuw i8, ptr %0, i64 48
  br label %32

32:                                               ; preds = %.lr.ph54, %._crit_edge
  %33 = phi i64 [ %27, %.lr.ph54 ], [ %53, %._crit_edge ]
  %.152 = phi i64 [ 0, %.lr.ph54 ], [ %52, %._crit_edge ]
  %34 = load i64, ptr %29, align 8, !tbaa !24
  %35 = sub i64 %.152, %34
  %spec.select = tail call i64 @llvm.smax.i64(i64 %35, i64 0)
  %36 = load i64, ptr %30, align 8, !tbaa !23
  %37 = add nsw i64 %36, %.152
  %.not = icmp sgt i64 %33, %37
  %38 = add nsw i64 %33, -1
  %39 = select i1 %.not, i64 %37, i64 %38
  %40 = icmp sgt i64 %35, 0
  br i1 %40, label %.lr.ph, label %.preheader47

.preheader47:                                     ; preds = %.lr.ph, %32
  %.not4249 = icmp sgt i64 %spec.select, %39
  br i1 %.not4249, label %._crit_edge, label %.lr.ph51

.lr.ph:                                           ; preds = %32, %.lr.ph
  %.13648 = phi i64 [ %42, %.lr.ph ], [ 0, %32 ]
  %41 = tail call i32 (ptr, ...) @printf(ptr noundef nonnull dereferenceable(1) @.str.2, ptr noundef nonnull @.str.3)
  %42 = add nuw nsw i64 %.13648, 1
  %exitcond.not = icmp eq i64 %42, %35
  br i1 %exitcond.not, label %.preheader47, label %.lr.ph, !llvm.loop !35

.lr.ph51:                                         ; preds = %.preheader47, %.lr.ph51
  %.250 = phi i64 [ %51, %.lr.ph51 ], [ %spec.select, %.preheader47 ]
  %43 = getelementptr inbounds nuw ptr, ptr %25, i64 %.250
  %44 = load ptr, ptr %43, align 8, !tbaa !13
  %45 = sub nsw i64 %.152, %.250
  %46 = load i64, ptr %31, align 8, !tbaa !25
  %47 = getelementptr double, ptr %44, i64 %45
  %48 = getelementptr double, ptr %47, i64 %46
  %49 = load double, ptr %48, align 8, !tbaa !27
  %50 = tail call i32 (ptr, ...) @printf(ptr noundef nonnull dereferenceable(1) @.str.1, double noundef %49)
  %51 = add nuw nsw i64 %.250, 1
  %.not42.not = icmp slt i64 %.250, %39
  br i1 %.not42.not, label %.lr.ph51, label %._crit_edge, !llvm.loop !36

._crit_edge:                                      ; preds = %.lr.ph51, %.preheader47
  %putchar43 = tail call i32 @putchar(i32 10)
  %52 = add nuw nsw i64 %.152, 1
  %53 = load i64, ptr %26, align 8, !tbaa !17
  %54 = icmp slt i64 %52, %53
  br i1 %54, label %32, label %.sink.split, !llvm.loop !37

.sink.split:                                      ; preds = %._crit_edge, %._crit_edge58, %23, %3
  %putchar41 = tail call i32 @putchar(i32 10)
  br label %55

55:                                               ; preds = %.sink.split, %1
  ret void
}